; Function Attrs: nounwind uwtable
define void @stbir__decode_uint16_linear_AR(ptr noundef %0, i32 noundef %1, ptr noundef readonly captures(none) %2) #0 {
  %4 = sext i32 %1 to i64
  %.idx = shl nsw i64 %4, 2
  %5 = getelementptr inbounds i8, ptr %0, i64 %.idx
  %6 = getelementptr inbounds i16, ptr %2, i64 %4
  %7 = getelementptr inbounds i8, ptr %6, i64 -16
  %8 = icmp sgt i32 %1, 7
  br i1 %8, label %9, label %.preheader67

.preheader67:                                     ; preds = %3
  %.not69 = icmp slt i32 %1, 4
  br i1 %.not69, label %.preheader, label %.lr.ph.preheader

.lr.ph.preheader:                                 ; preds = %.preheader67
  %.268 = getelementptr inbounds nuw i8, ptr %0, i64 16
  br label %.lr.ph

9:                                                ; preds = %3
  %10 = getelementptr inbounds i8, ptr %5, i64 -32
  br label %11

11:                                               ; preds = %11, %9
  %.055 = phi ptr [ %2, %9 ], [ %.156, %11 ]
  %.054 = phi ptr [ %0, %9 ], [ %.1, %11 ]
  tail call void asm sideeffect "", "r,~{dirflag},~{fpsr},~{flags}"(ptr %.054) #24, !srcloc !389
  %12 = load <8 x i16>, ptr %.055, align 1, !tbaa !4
  %13 = shufflevector <8 x i16> %12, <8 x i16> <i16 0, i16 0, i16 0, i16 0, i16 poison, i16 poison, i16 poison, i16 poison>, <8 x i32> <i32 0, i32 8, i32 1, i32 9, i32 2, i32 10, i32 3, i32 11>
  %14 = shufflevector <8 x i16> %12, <8 x i16> <i16 poison, i16 poison, i16 poison, i16 poison, i16 0, i16 0, i16 0, i16 0>, <8 x i32> <i32 4, i32 12, i32 5, i32 13, i32 6, i32 14, i32 7, i32 15>
  %15 = bitcast <8 x i16> %13 to <4 x i32>
  %16 = uitofp nneg <4 x i32> %15 to <4 x float>
  %17 = bitcast <8 x i16> %14 to <4 x i32>
  %18 = uitofp nneg <4 x i32> %17 to <4 x float>
  %19 = shufflevector <4 x float> %16, <4 x float> poison, <4 x i32> <i32 1, i32 0, i32 3, i32 2>
  %20 = shufflevector <4 x float> %18, <4 x float> poison, <4 x i32> <i32 1, i32 0, i32 3, i32 2>
  store <4 x float> %19, ptr %.054, align 1, !tbaa !4
  %21 = getelementptr inbounds nuw i8, ptr %.054, i64 16
  store <4 x float> %20, ptr %21, align 1, !tbaa !4
  %22 = getelementptr inbounds nuw i8, ptr %.054, i64 32
  %23 = getelementptr inbounds nuw i8, ptr %.055, i64 16
  %.not63 = icmp ugt ptr %22, %10
  %24 = icmp eq ptr %22, %5
  %. = select i1 %24, ptr %23, ptr %7
  %.64 = select i1 %24, ptr %22, ptr %10
  %.156 = select i1 %.not63, ptr %., ptr %23
  %.1 = select i1 %.not63, ptr %.64, ptr %22
  br i1 %24, label %.loopexit, label %11

.preheader:                                       ; preds = %.lr.ph, %.preheader67
  %.257.lcssa = phi ptr [ %2, %.preheader67 ], [ %40, %.lr.ph ]
  %.pn.lcssa = phi ptr [ %0, %.preheader67 ], [ %.272, %.lr.ph ]
  %25 = icmp ult ptr %.pn.lcssa, %5
  br i1 %25, label %.lr.ph76, label %.loopexit

.lr.ph:                                           ; preds = %.lr.ph.preheader, %.lr.ph
  %.272 = phi ptr [ %.2, %.lr.ph ], [ %.268, %.lr.ph.preheader ]
  %.pn71 = phi ptr [ %.272, %.lr.ph ], [ %0, %.lr.ph.preheader ]
  %.25770 = phi ptr [ %40, %.lr.ph ], [ %2, %.lr.ph.preheader ]
  tail call void asm sideeffect "", "r,~{dirflag},~{fpsr},~{flags}"(ptr nonnull %.272) #24, !srcloc !390
  %26 = getelementptr inbounds nuw i8, ptr %.25770, i64 2
  %27 = load i16, ptr %26, align 2, !tbaa !174
  %28 = uitofp i16 %27 to float
  store float %28, ptr %.pn71, align 4, !tbaa !50
  %29 = load i16, ptr %.25770, align 2, !tbaa !174
  %30 = uitofp i16 %29 to float
  %31 = getelementptr inbounds nuw i8, ptr %.pn71, i64 4
  store float %30, ptr %31, align 4, !tbaa !50
  %32 = getelementptr inbounds nuw i8, ptr %.25770, i64 6
  %33 = load i16, ptr %32, align 2, !tbaa !174
  %34 = uitofp i16 %33 to float
  %35 = getelementptr inbounds nuw i8, ptr %.pn71, i64 8
  store float %34, ptr %35, align 4, !tbaa !50
  %36 = getelementptr inbounds nuw i8, ptr %.25770, i64 4
  %37 = load i16, ptr %36, align 2, !tbaa !174
  %38 = uitofp i16 %37 to float
  %39 = getelementptr inbounds nuw i8, ptr %.pn71, i64 12
  store float %38, ptr %39, align 4, !tbaa !50
  %40 = getelementptr inbounds nuw i8, ptr %.25770, i64 8
  %.2 = getelementptr inbounds nuw i8, ptr %.272, i64 16
  %.not = icmp ugt ptr %.2, %5
  br i1 %.not, label %.preheader, label %.lr.ph, !llvm.loop !391

.lr.ph76:                                         ; preds = %.preheader, %.lr.ph76
  %.375 = phi ptr [ %47, %.lr.ph76 ], [ %.pn.lcssa, %.preheader ]
  %.35874 = phi ptr [ %48, %.lr.ph76 ], [ %.257.lcssa, %.preheader ]
  tail call void asm sideeffect "", "r,~{dirflag},~{fpsr},~{flags}"(ptr nonnull %.375) #24, !srcloc !392
  %41 = getelementptr inbounds nuw i8, ptr %.35874, i64 2
  %42 = load i16, ptr %41, align 2, !tbaa !174
  %43 = uitofp i16 %42 to float
  store float %43, ptr %.375, align 4, !tbaa !50
  %44 = load i16, ptr %.35874, align 2, !tbaa !174
  %45 = uitofp i16 %44 to float
  %46 = getelementptr inbounds nuw i8, ptr %.375, i64 4
  store float %45, ptr %46, align 4, !tbaa !50
  %47 = getelementptr inbounds nuw i8, ptr %.375, i64 8
  %48 = getelementptr inbounds nuw i8, ptr %.35874, i64 4
  %49 = icmp ult ptr %47, %5
  br i1 %49, label %.lr.ph76, label %.loopexit, !llvm.loop !393

.loopexit:                                        ; preds = %.lr.ph76, %11, %.preheader
  ret void
}